target datalayout = "e-m:e-p270:32:32-p271:32:32-p272:64:64-i64:64-i128:128-f80:128-n8:16:32:64-S128"
target triple = "x86_64-unknown-linux-gnu"

%"struct.icu_75::FormattedStringBuilder::Field" = type { i8 }
%"class.icu_75::number::SimpleNumber" = type <{ ptr, i32, [4 x i8] }>
%"class.icu_75::number::impl::UFormattedNumberData" = type { %"class.icu_75::FormattedValueStringBuilderImpl.base", [4 x i8], %"class.icu_75::number::impl::DecimalQuantity", %"class.icu_75::MeasureUnit", ptr }
%"class.icu_75::FormattedValueStringBuilderImpl.base" = type <{ %"class.icu_75::FormattedValue", %"class.icu_75::FormattedStringBuilder", %"struct.icu_75::FormattedStringBuilder::Field", [7 x i8], %"class.icu_75::MaybeStackArray.2", i32 }>
%"class.icu_75::FormattedValue" = type { ptr }
%"class.icu_75::FormattedStringBuilder" = type { i8, %"union.icu_75::FormattedStringBuilder::ValueOrHeapArray", %"union.icu_75::FormattedStringBuilder::ValueOrHeapArray.0", i32, i32 }
%"union.icu_75::FormattedStringBuilder::ValueOrHeapArray" = type { %struct.anon, [64 x i8] }
%struct.anon = type { ptr, i32 }
%"union.icu_75::FormattedStringBuilder::ValueOrHeapArray.0" = type { %struct.anon.1, [24 x i8] }
%struct.anon.1 = type { ptr, i32 }
%"class.icu_75::MaybeStackArray.2" = type { ptr, i32, i8, [8 x %"struct.icu_75::SpanInfo"] }
%"struct.icu_75::SpanInfo" = type { i32, i32, i32, i32 }
%"class.icu_75::number::impl::DecimalQuantity" = type <{ %"class.icu_75::IFixedDecimal", i8, [3 x i8], i32, i32, i8, i8, [2 x i8], double, i32, i32, i32, i32, %union.anon, i8, i8, [6 x i8] }>
%"class.icu_75::IFixedDecimal" = type { ptr }
%union.anon = type { %struct.anon.3 }
%struct.anon.3 = type { ptr, i32 }
%"class.icu_75::MeasureUnit" = type <{ %"class.icu_75::UObject", ptr, i16, i8, [5 x i8] }>
%"class.icu_75::UObject" = type { ptr }

; Function Attrs: mustprogress nounwind uwtable
define internal noundef signext i8 @_ZL9U_FAILURE10UErrorCode(i32 noundef %code) #0 {
entry:
  %code.addr = alloca i32, align 4
  store i32 %code, ptr %code.addr, align 4
  %0 = load i32, ptr %code.addr, align 4
  %cmp = icmp sgt i32 %0, 0
  %conv = zext i1 %cmp to i8
  ret i8 %conv
}

; Function Attrs: mustprogress uwtable
define void @_ZN6icu_756number12SimpleNumberC2EPNS0_4impl20UFormattedNumberDataER10UErrorCode(ptr noundef nonnull align 8 dereferenceable(12) %this, ptr noundef %data, ptr noundef nonnull align 4 dereferenceable(4) %status) unnamed_addr #1 align 2 {
entry:
  %this.addr = alloca ptr, align 8
  %data.addr = alloca ptr, align 8
  %status.addr = alloca ptr, align 8
  store ptr %this, ptr %this.addr, align 8
  store ptr %data, ptr %data.addr, align 8
  store ptr %status, ptr %status.addr, align 8
  %this1 = load ptr, ptr %this.addr, align 8
  %fData = getelementptr inbounds %"class.icu_75::number::SimpleNumber", ptr %this1, i32 0, i32 0
  %0 = load ptr, ptr %data.addr, align 8
  store ptr %0, ptr %fData, align 8
  %fSign = getelementptr inbounds %"class.icu_75::number::SimpleNumber", ptr %this1, i32 0, i32 1
  store i32 1, ptr %fSign, align 8
  %1 = load ptr, ptr %status.addr, align 8
  %2 = load i32, ptr %1, align 4
  %call = call noundef signext i8 @_ZL9U_FAILURE10UErrorCode(i32 noundef %2)
  %tobool = icmp ne i8 %call, 0
  br i1 %tobool, label %if.then, label %if.end

if.then:                                          ; preds = %entry
  br label %if.end10

if.end:                                           ; preds = %entry
  %fData2 = getelementptr inbounds %"class.icu_75::number::SimpleNumber", ptr %this1, i32 0, i32 0
  %3 = load ptr, ptr %fData2, align 8
  %cmp = icmp eq ptr %3, null
  br i1 %cmp, label %if.then3, label %if.end4

if.then3:                                         ; preds = %if.end
  %4 = load ptr, ptr %status.addr, align 8
  store i32 1, ptr %4, align 4
  br label %if.end10

if.end4:                                          ; preds = %if.end
  %fData5 = getelementptr inbounds %"class.icu_75::number::SimpleNumber", ptr %this1, i32 0, i32 0
  %5 = load ptr, ptr %fData5, align 8
  %quantity = getelementptr inbounds %"class.icu_75::number::impl::UFormattedNumberData", ptr %5, i32 0, i32 2
  %call6 = call noundef zeroext i1 @_ZNK6icu_756number4impl15DecimalQuantity10isNegativeEv(ptr noundef nonnull align 8 dereferenceable(66) %quantity)
  br i1 %call6, label %if.then7, label %if.else

if.then7:                                         ; preds = %if.end4
  %fSign8 = getelementptr inbounds %"class.icu_75::number::SimpleNumber", ptr %this1, i32 0, i32 1
  store i32 2, ptr %fSign8, align 8
  br label %if.end10

if.else:                                          ; preds = %if.end4
  %fSign9 = getelementptr inbounds %"class.icu_75::number::SimpleNumber", ptr %this1, i32 0, i32 1
  store i32 1, ptr %fSign9, align 8
  br label %if.end10

if.end10:                                         ; preds = %if.else, %if.then7, %if.then3, %if.then
  ret void
}