; Function Attrs: mustprogress uwtable
define void @_ZN6icu_756number12SimpleNumberC2EPNS0_4impl20UFormattedNumberDataER10UErrorCode(ptr nocapture noundef nonnull writeonly align 8 dereferenceable(12) %this, ptr noundef %data, ptr nocapture noundef nonnull align 4 dereferenceable(4) %status) unnamed_addr #1 align 2 {
entry:
  store ptr %data, ptr %this, align 8
  %fSign = getelementptr inbounds i8, ptr %this, i64 8
  store i32 1, ptr %fSign, align 8
  %0 = load i32, ptr %status, align 4
  %cmp.i = icmp slt i32 %0, 1
  br i1 %cmp.i, label %if.end, label %if.end10

if.end:                                           ; preds = %entry
  %cmp = icmp eq ptr %data, null
  br i1 %cmp, label %if.then3, label %if.end4

if.then3:                                         ; preds = %if.end
  store i32 1, ptr %status, align 4
  br label %if.end10

if.end4:                                          ; preds = %if.end
  %quantity = getelementptr inbounds i8, ptr %data, i64 304
  %call6 = tail call noundef zeroext i1 @_ZNK6icu_756number4impl15DecimalQuantity10isNegativeEv(ptr noundef nonnull align 8 dereferenceable(66) %quantity)
  br i1 %call6, label %if.then7, label %if.else

if.then7:                                         ; preds = %if.end4
  store i32 2, ptr %fSign, align 8
  br label %if.end10

if.else:                                          ; preds = %if.end4
  store i32 1, ptr %fSign, align 8
  br label %if.end10

if.end10:                                         ; preds = %entry, %if.else, %if.then7, %if.then3
  ret void
}